target datalayout = "e-m:e-p270:32:32-p271:32:32-p272:64:64-i64:64-i128:128-f80:128-n8:16:32:64-S128"
target triple = "x86_64-pc-linux-gnu"

@.str.13 = private unnamed_addr constant [3 x i8] c"rt\00", align 1

; Function Attrs: mustprogress uwtable
define noundef ptr @_ZN11ShaderUtils13importShadersEPKc(ptr noundef %0) #5 {
  %2 = alloca ptr, align 8
  %3 = alloca ptr, align 8
  %4 = alloca ptr, align 8
  %5 = alloca i64, align 8
  store ptr %0, ptr %2, align 8
  store ptr null, ptr %4, align 8
  %6 = load ptr, ptr %2, align 8
  %7 = call noalias ptr @fopen(ptr noundef %6, ptr noundef @.str.13)
  store ptr %7, ptr %3, align 8
  %8 = load ptr, ptr %3, align 8
  %9 = icmp ne ptr %8, null
  br i1 %9, label %10, label %33

10:                                               ; preds = %1
  %11 = load ptr, ptr %3, align 8
  %12 = call i32 @fseek(ptr noundef %11, i64 noundef 0, i32 noundef 2)
  %13 = load ptr, ptr %3, align 8
  %14 = call i64 @ftell(ptr noundef %13)
  store i64 %14, ptr %5, align 8
  %15 = load ptr, ptr %3, align 8
  %16 = call i32 @fseek(ptr noundef %15, i64 noundef 0, i32 noundef 0)
  %17 = load i64, ptr %5, align 8
  %18 = icmp ugt i64 %17, 0
  br i1 %18, label %19, label %30

19:                                               ; preds = %10
  %20 = load i64, ptr %5, align 8
  %21 = add i64 %20, 1
  %22 = call noalias noundef nonnull ptr @_Znam(i64 noundef %21) #22
  store ptr %22, ptr %4, align 8
  %23 = load ptr, ptr %4, align 8
  %24 = load i64, ptr %5, align 8
  %25 = load ptr, ptr %3, align 8
  %26 = call i64 @fread(ptr noundef %23, i64 noundef 1, i64 noundef %24, ptr noundef %25)
  store i64 %26, ptr %5, align 8
  %27 = load ptr, ptr %4, align 8
  %28 = load i64, ptr %5, align 8
  %29 = getelementptr inbounds i8, ptr %27, i64 %28
  store i8 0, ptr %29, align 1
  br label %30

30:                                               ; preds = %19, %10
  %31 = load ptr, ptr %3, align 8
  %32 = call i32 @fclose(ptr noundef %31)
  br label %33

33:                                               ; preds = %30, %1
  %34 = load ptr, ptr %4, align 8
  ret ptr %34
}