; Function Attrs: mustprogress uwtable
define noalias noundef ptr @_ZN11ShaderUtils13importShadersEPKc(ptr nocapture noundef readonly %0) local_unnamed_addr #9 {
  %2 = tail call noalias ptr @fopen(ptr noundef %0, ptr noundef nonnull @.str.13)
  %.not = icmp eq ptr %2, null
  br i1 %.not, label %14, label %3

3:                                                ; preds = %1
  %4 = tail call i32 @fseek(ptr noundef nonnull %2, i64 noundef 0, i32 noundef 2)
  %5 = tail call i64 @ftell(ptr noundef nonnull %2)
  %6 = tail call i32 @fseek(ptr noundef nonnull %2, i64 noundef 0, i32 noundef 0)
  %.not15 = icmp eq i64 %5, 0
  br i1 %.not15, label %12, label %7

7:                                                ; preds = %3
  %8 = add i64 %5, 1
  %9 = tail call noalias noundef nonnull ptr @_Znam(i64 noundef %8) #34
  %10 = tail call i64 @fread(ptr noundef nonnull %9, i64 noundef 1, i64 noundef %5, ptr noundef nonnull %2)
  %11 = getelementptr inbounds i8, ptr %9, i64 %10
  store i8 0, ptr %11, align 1
  br label %12

12:                                               ; preds = %7, %3
  %.0 = phi ptr [ %9, %7 ], [ null, %3 ]
  %13 = tail call i32 @fclose(ptr noundef nonnull %2)
  br label %14

14:                                               ; preds = %12, %1
  %.1 = phi ptr [ %.0, %12 ], [ null, %1 ]
  ret ptr %.1
}